target datalayout = "e-m:e-p270:32:32-p271:32:32-p272:64:64-i64:64-i128:128-f80:128-n8:16:32:64-S128"
target triple = "x86_64-pc-linux-gnu"

%struct.ref = type { ptr, %struct.object_id, %struct.object_id, %struct.object_id, ptr, ptr, i8, i32, i32, i32, ptr, ptr, ptr, [0 x i8] }
%struct.object_id = type { [32 x i8], i32 }

; Function Attrs: nounwind uwtable
define internal ptr @iterate_ref_map(ptr noundef %0) #0 {
  %2 = alloca ptr, align 8
  %3 = alloca ptr, align 8
  %4 = alloca ptr, align 8
  %5 = alloca ptr, align 8
  %6 = alloca i32, align 4
  store ptr %0, ptr %3, align 8, !tbaa !80
  call void @llvm.lifetime.start.p0(i64 8, ptr %4) #13
  %7 = load ptr, ptr %3, align 8, !tbaa !80
  store ptr %7, ptr %4, align 8, !tbaa !100
  call void @llvm.lifetime.start.p0(i64 8, ptr %5) #13
  %8 = load ptr, ptr %4, align 8, !tbaa !100
  %9 = load ptr, ptr %8, align 8, !tbaa !15
  store ptr %9, ptr %5, align 8, !tbaa !15
  br label %10

10:                                               ; preds = %21, %1
  %11 = load ptr, ptr %5, align 8, !tbaa !15
  %12 = icmp ne ptr %11, null
  br i1 %12, label %13, label %19

13:                                               ; preds = %10
  %14 = load ptr, ptr %5, align 8, !tbaa !15
  %15 = getelementptr inbounds nuw %struct.ref, ptr %14, i32 0, i32 12
  %16 = load ptr, ptr %15, align 8, !tbaa !15
  %17 = icmp ne ptr %16, null
  %18 = xor i1 %17, true
  br label %19

19:                                               ; preds = %13, %10
  %20 = phi i1 [ false, %10 ], [ %18, %13 ]
  br i1 %20, label %21, label %25

21:                                               ; preds = %19
  %22 = load ptr, ptr %5, align 8, !tbaa !15
  %23 = getelementptr inbounds nuw %struct.ref, ptr %22, i32 0, i32 0
  %24 = load ptr, ptr %23, align 8, !tbaa !15
  store ptr %24, ptr %5, align 8, !tbaa !15
  br label %10, !llvm.loop !172

25:                                               ; preds = %19
  %26 = load ptr, ptr %5, align 8, !tbaa !15
  %27 = icmp ne ptr %26, null
  br i1 %27, label %29, label %28

28:                                               ; preds = %25
  store ptr null, ptr %2, align 8
  store i32 1, ptr %6, align 4
  br label %36

29:                                               ; preds = %25
  %30 = load ptr, ptr %5, align 8, !tbaa !15
  %31 = getelementptr inbounds nuw %struct.ref, ptr %30, i32 0, i32 0
  %32 = load ptr, ptr %31, align 8, !tbaa !15
  %33 = load ptr, ptr %4, align 8, !tbaa !100
  store ptr %32, ptr %33, align 8, !tbaa !15
  %34 = load ptr, ptr %5, align 8, !tbaa !15
  %35 = getelementptr inbounds nuw %struct.ref, ptr %34, i32 0, i32 1
  store ptr %35, ptr %2, align 8
  store i32 1, ptr %6, align 4
  br label %36

36:                                               ; preds = %29, %28
  call void @llvm.lifetime.end.p0(i64 8, ptr %5) #13
  call void @llvm.lifetime.end.p0(i64 8, ptr %4) #13
  %37 = load ptr, ptr %2, align 8
  ret ptr %37
}