; Function Attrs: nofree norecurse nosync nounwind memory(read, argmem: readwrite, inaccessiblemem: none) uwtable
define internal ptr @iterate_ref_map(ptr noundef captures(none) %0) #15 {
  br label %2

2:                                                ; preds = %3, %1
  %.0.in = phi ptr [ %0, %1 ], [ %.0, %3 ]
  %.0 = load ptr, ptr %.0.in, align 8, !tbaa !73
  %.not = icmp eq ptr %.0, null
  br i1 %.not, label %.critedge12, label %3

3:                                                ; preds = %2
  %4 = getelementptr inbounds nuw i8, ptr %.0, i64 168
  %5 = load ptr, ptr %4, align 8, !tbaa !73
  %.not11 = icmp eq ptr %5, null
  br i1 %.not11, label %2, label %.critedge, !llvm.loop !144

.critedge:                                        ; preds = %3
  %6 = load ptr, ptr %.0, align 8, !tbaa !73
  store ptr %6, ptr %0, align 8, !tbaa !73
  %7 = getelementptr inbounds nuw i8, ptr %.0, i64 8
  br label %.critedge12

.critedge12:                                      ; preds = %2, %.critedge
  %.010 = phi ptr [ %7, %.critedge ], [ null, %2 ]
  ret ptr %.010
}